target datalayout = "e-m:e-p270:32:32-p271:32:32-p272:64:64-i64:64-i128:128-f80:128-n8:16:32:64-S128"
target triple = "x86_64-pc-linux-gnu"

%"class.std::shared_ptr" = type { %"class.std::__shared_ptr" }
%"class.std::__shared_ptr" = type { ptr, %"class.std::__shared_count" }
%"class.std::__shared_count" = type { ptr }
%"class.open_spiel::coordinated_mp::PenniesState" = type { %"class.open_spiel::State.base", i32, i32, i32 }
%"class.open_spiel::State.base" = type <{ ptr, %"class.std::shared_ptr", i32, i32, %"class.std::vector", i32 }>
%"class.std::vector" = type { %"struct.std::_Vector_base" }
%"struct.std::_Vector_base" = type { %"struct.std::_Vector_base<open_spiel::State::PlayerAction, std::allocator<open_spiel::State::PlayerAction>>::_Vector_impl" }
%"struct.std::_Vector_base<open_spiel::State::PlayerAction, std::allocator<open_spiel::State::PlayerAction>>::_Vector_impl" = type { %"struct.std::_Vector_base<open_spiel::State::PlayerAction, std::allocator<open_spiel::State::PlayerAction>>::_Vector_impl_data" }
%"struct.std::_Vector_base<open_spiel::State::PlayerAction, std::allocator<open_spiel::State::PlayerAction>>::_Vector_impl_data" = type { ptr, ptr, ptr }

; Function Attrs: mustprogress nounwind uwtable
define noundef zeroext i1 @_ZNK10open_spiel14coordinated_mp12PenniesState10IsTerminalEv(ptr noundef nonnull align 8 dereferenceable(72) %0) unnamed_addr #6 align 2 {
  %2 = alloca ptr, align 8
  store ptr %0, ptr %2, align 8
  %3 = load ptr, ptr %2, align 8
  %4 = getelementptr inbounds nuw %"class.open_spiel::coordinated_mp::PenniesState", ptr %3, i32 0, i32 1
  %5 = load i32, ptr %4, align 4
  %6 = icmp ne i32 %5, -1
  br i1 %6, label %7, label %15

7:                                                ; preds = %1
  %8 = getelementptr inbounds nuw %"class.open_spiel::coordinated_mp::PenniesState", ptr %3, i32 0, i32 2
  %9 = load i32, ptr %8, align 8
  %10 = icmp ne i32 %9, -1
  br i1 %10, label %11, label %15

11:                                               ; preds = %7
  %12 = getelementptr inbounds nuw %"class.open_spiel::coordinated_mp::PenniesState", ptr %3, i32 0, i32 3
  %13 = load i32, ptr %12, align 4
  %14 = icmp ne i32 %13, -1
  br label %15

15:                                               ; preds = %11, %7, %1
  %16 = phi i1 [ false, %7 ], [ false, %1 ], [ %14, %11 ]
  ret i1 %16
}